target datalayout = "e-m:e-p270:32:32-p271:32:32-p272:64:64-i64:64-i128:128-f80:128-n8:16:32:64-S128"
target triple = "x86_64-pc-linux-gnu"

%struct.bignum_st = type { ptr, i32, i32, i32, i32 }

@.str = private unnamed_addr constant [118 x i8] c"generated/home/dtcxzyw/WorkSpace/Projects/compilers/llvm-opt-benchmark/bench/libquic/libquic/boringssl/crypto/bn/bn.c\00", align 1

; Function Attrs: nounwind uwtable
define hidden ptr @bn_wexpand(ptr noundef %0, i64 noundef %1) #0 {
  %3 = alloca ptr, align 8
  %4 = alloca ptr, align 8
  %5 = alloca i64, align 8
  %6 = alloca ptr, align 8
  %7 = alloca i32, align 4
  store ptr %0, ptr %4, align 8, !tbaa !6
  store i64 %1, ptr %5, align 8, !tbaa !20
  call void @llvm.lifetime.start.p0(i64 8, ptr %6) #7
  %8 = load i64, ptr %5, align 8, !tbaa !20
  %9 = load ptr, ptr %4, align 8, !tbaa !6
  %10 = getelementptr inbounds nuw %struct.bignum_st, ptr %9, i32 0, i32 2
  %11 = load i32, ptr %10, align 4, !tbaa !16
  %12 = sext i32 %11 to i64
  %13 = icmp ule i64 %8, %12
  br i1 %13, label %14, label %16

14:                                               ; preds = %2
  %15 = load ptr, ptr %4, align 8, !tbaa !6
  store ptr %15, ptr %3, align 8
  store i32 1, ptr %7, align 4
  br label %55

16:                                               ; preds = %2
  %17 = load i64, ptr %5, align 8, !tbaa !20
  %18 = icmp ugt i64 %17, 8388607
  br i1 %18, label %19, label %20

19:                                               ; preds = %16
  call void @ERR_put_error(i32 noundef 3, i32 noundef 0, i32 noundef 102, ptr noundef @.str, i32 noundef 301)
  store ptr null, ptr %3, align 8
  store i32 1, ptr %7, align 4
  br label %55

20:                                               ; preds = %16
  %21 = load ptr, ptr %4, align 8, !tbaa !6
  %22 = getelementptr inbounds nuw %struct.bignum_st, ptr %21, i32 0, i32 4
  %23 = load i32, ptr %22, align 4, !tbaa !11
  %24 = and i32 %23, 2
  %25 = icmp ne i32 %24, 0
  br i1 %25, label %26, label %27

26:                                               ; preds = %20
  call void @ERR_put_error(i32 noundef 3, i32 noundef 0, i32 noundef 106, ptr noundef @.str, i32 noundef 306)
  store ptr null, ptr %3, align 8
  store i32 1, ptr %7, align 4
  br label %55

27:                                               ; preds = %20
  %28 = load i64, ptr %5, align 8, !tbaa !20
  %29 = mul i64 8, %28
  %30 = call noalias ptr @malloc(i64 noundef %29) #8
  store ptr %30, ptr %6, align 8, !tbaa !22
  %31 = load ptr, ptr %6, align 8, !tbaa !22
  %32 = icmp eq ptr %31, null
  br i1 %32, label %33, label %34

33:                                               ; preds = %27
  call void @ERR_put_error(i32 noundef 3, i32 noundef 0, i32 noundef 65, ptr noundef @.str, i32 noundef 312)
  store ptr null, ptr %3, align 8
  store i32 1, ptr %7, align 4
  br label %55

34:                                               ; preds = %27
  %35 = load ptr, ptr %6, align 8, !tbaa !22
  %36 = load ptr, ptr %4, align 8, !tbaa !6
  %37 = getelementptr inbounds nuw %struct.bignum_st, ptr %36, i32 0, i32 0
  %38 = load ptr, ptr %37, align 8, !tbaa !15
  %39 = load ptr, ptr %4, align 8, !tbaa !6
  %40 = getelementptr inbounds nuw %struct.bignum_st, ptr %39, i32 0, i32 1
  %41 = load i32, ptr %40, align 8, !tbaa !18
  %42 = sext i32 %41 to i64
  %43 = mul i64 8, %42
  call void @llvm.memcpy.p0.p0.i64(ptr align 8 %35, ptr align 8 %38, i64 %43, i1 false)
  %44 = load ptr, ptr %4, align 8, !tbaa !6
  %45 = getelementptr inbounds nuw %struct.bignum_st, ptr %44, i32 0, i32 0
  %46 = load ptr, ptr %45, align 8, !tbaa !15
  call void @free(ptr noundef %46) #7
  %47 = load ptr, ptr %6, align 8, !tbaa !22
  %48 = load ptr, ptr %4, align 8, !tbaa !6
  %49 = getelementptr inbounds nuw %struct.bignum_st, ptr %48, i32 0, i32 0
  store ptr %47, ptr %49, align 8, !tbaa !15
  %50 = load i64, ptr %5, align 8, !tbaa !20
  %51 = trunc i64 %50 to i32
  %52 = load ptr, ptr %4, align 8, !tbaa !6
  %53 = getelementptr inbounds nuw %struct.bignum_st, ptr %52, i32 0, i32 2
  store i32 %51, ptr %53, align 4, !tbaa !16
  %54 = load ptr, ptr %4, align 8, !tbaa !6
  store ptr %54, ptr %3, align 8
  store i32 1, ptr %7, align 4
  br label %55

55:                                               ; preds = %34, %33, %26, %19, %14
  call void @llvm.lifetime.end.p0(i64 8, ptr %6) #7
  %56 = load ptr, ptr %3, align 8
  ret ptr %56
}

; Function Attrs: nounwind uwtable
define hidden void @BN_zero(ptr noundef %0) #0 {
  %2 = alloca ptr, align 8
  store ptr %0, ptr %2, align 8, !tbaa !6
  %3 = load ptr, ptr %2, align 8, !tbaa !6
  %4 = getelementptr inbounds nuw %struct.bignum_st, ptr %3, i32 0, i32 3
  store i32 0, ptr %4, align 8, !tbaa !19
  %5 = load ptr, ptr %2, align 8, !tbaa !6
  %6 = getelementptr inbounds nuw %struct.bignum_st, ptr %5, i32 0, i32 1
  store i32 0, ptr %6, align 8, !tbaa !18
  ret void
}

; Function Attrs: nounwind uwtable
define hidden i32 @BN_set_word(ptr noundef %0, i64 noundef %1) #0 {
  %3 = alloca i32, align 4
  %4 = alloca ptr, align 8
  %5 = alloca i64, align 8
  store ptr %0, ptr %4, align 8, !tbaa !6
  store i64 %1, ptr %5, align 8, !tbaa !20
  %6 = load i64, ptr %5, align 8, !tbaa !20
  %7 = icmp eq i64 %6, 0
  br i1 %7, label %8, label %10

8:                                                ; preds = %2
  %9 = load ptr, ptr %4, align 8, !tbaa !6
  call void @BN_zero(ptr noundef %9)
  store i32 1, ptr %3, align 4
  br label %25

10:                                               ; preds = %2
  %11 = load ptr, ptr %4, align 8, !tbaa !6
  %12 = call ptr @bn_wexpand(ptr noundef %11, i64 noundef 1)
  %13 = icmp eq ptr %12, null
  br i1 %13, label %14, label %15

14:                                               ; preds = %10
  store i32 0, ptr %3, align 4
  br label %25

15:                                               ; preds = %10
  %16 = load ptr, ptr %4, align 8, !tbaa !6
  %17 = getelementptr inbounds nuw %struct.bignum_st, ptr %16, i32 0, i32 3
  store i32 0, ptr %17, align 8, !tbaa !19
  %18 = load i64, ptr %5, align 8, !tbaa !20
  %19 = load ptr, ptr %4, align 8, !tbaa !6
  %20 = getelementptr inbounds nuw %struct.bignum_st, ptr %19, i32 0, i32 0
  %21 = load ptr, ptr %20, align 8, !tbaa !15
  %22 = getelementptr inbounds i64, ptr %21, i64 0
  store i64 %18, ptr %22, align 8, !tbaa !20
  %23 = load ptr, ptr %4, align 8, !tbaa !6
  %24 = getelementptr inbounds nuw %struct.bignum_st, ptr %23, i32 0, i32 1
  store i32 1, ptr %24, align 8, !tbaa !18
  store i32 1, ptr %3, align 4
  br label %25

25:                                               ; preds = %15, %14, %8
  %26 = load i32, ptr %3, align 4
  ret i32 %26
}

; Function Attrs: nounwind uwtable
define hidden i32 @BN_one(ptr noundef %0) #0 {
  %2 = alloca ptr, align 8
  store ptr %0, ptr %2, align 8, !tbaa !6
  %3 = load ptr, ptr %2, align 8, !tbaa !6
  %4 = call i32 @BN_set_word(ptr noundef %3, i64 noundef 1)
  ret i32 %4
}