; Function Attrs: nounwind uwtable
define hidden range(i32 0, 2) i32 @BN_one(ptr noundef captures(none) %0) local_unnamed_addr #0 {
  %2 = getelementptr inbounds nuw i8, ptr %0, i64 12
  %3 = load i32, ptr %2, align 4, !tbaa !14
  %.not.i.i = icmp eq i32 %3, 0
  br i1 %.not.i.i, label %4, label %.bn_wexpand.exit_crit_edge.i

.bn_wexpand.exit_crit_edge.i:                     ; preds = %1
  %.pre.i = load ptr, ptr %0, align 8, !tbaa !13
  br label %bn_wexpand.exit.i

4:                                                ; preds = %1
  %5 = getelementptr inbounds nuw i8, ptr %0, i64 20
  %6 = load i32, ptr %5, align 4, !tbaa !6
  %7 = and i32 %6, 2
  %.not18.i.i = icmp eq i32 %7, 0
  br i1 %.not18.i.i, label %9, label %8

8:                                                ; preds = %4
  tail call void @ERR_put_error(i32 noundef 3, i32 noundef 0, i32 noundef 106, ptr noundef nonnull @.str, i32 noundef 306) #14
  br label %BN_set_word.exit

9:                                                ; preds = %4
  %10 = tail call noalias dereferenceable_or_null(8) ptr @malloc(i64 noundef 8) #15
  %11 = icmp eq ptr %10, null
  br i1 %11, label %12, label %13

12:                                               ; preds = %9
  tail call void @ERR_put_error(i32 noundef 3, i32 noundef 0, i32 noundef 65, ptr noundef nonnull @.str, i32 noundef 312) #14
  br label %BN_set_word.exit

13:                                               ; preds = %9
  %14 = load ptr, ptr %0, align 8, !tbaa !13
  %15 = getelementptr inbounds nuw i8, ptr %0, i64 8
  %16 = load i32, ptr %15, align 8, !tbaa !15
  %17 = sext i32 %16 to i64
  %18 = shl nsw i64 %17, 3
  tail call void @llvm.memcpy.p0.p0.i64(ptr nonnull align 8 %10, ptr align 8 %14, i64 %18, i1 false)
  tail call void @free(ptr noundef %14) #14
  store ptr %10, ptr %0, align 8, !tbaa !13
  store i32 1, ptr %2, align 4, !tbaa !14
  br label %bn_wexpand.exit.i

bn_wexpand.exit.i:                                ; preds = %13, %.bn_wexpand.exit_crit_edge.i
  %19 = phi ptr [ %.pre.i, %.bn_wexpand.exit_crit_edge.i ], [ %10, %13 ]
  %20 = getelementptr inbounds nuw i8, ptr %0, i64 16
  store i32 0, ptr %20, align 8, !tbaa !16
  store i64 1, ptr %19, align 8, !tbaa !18
  %21 = getelementptr inbounds nuw i8, ptr %0, i64 8
  store i32 1, ptr %21, align 8, !tbaa !15
  br label %BN_set_word.exit

BN_set_word.exit:                                 ; preds = %8, %12, %bn_wexpand.exit.i
  %.0.i = phi i32 [ 1, %bn_wexpand.exit.i ], [ 0, %8 ], [ 0, %12 ]
  ret i32 %.0.i
}